target datalayout = "e-m:e-p270:32:32-p271:32:32-p272:64:64-i64:64-i128:128-f80:128-n8:16:32:64-S128"
target triple = "x86_64-pc-linux-gnu"

%struct._lv_draw_sw_mask_common_dsc_t = type { ptr, i32 }

; Function Attrs: nounwind uwtable
define i32 @lv_draw_sw_mask_apply(ptr noundef %0, ptr noundef %1, i32 noundef %2, i32 noundef %3, i32 noundef %4) #0 {
  %6 = alloca i32, align 4
  %7 = alloca ptr, align 8
  %8 = alloca ptr, align 8
  %9 = alloca i32, align 4
  %10 = alloca i32, align 4
  %11 = alloca i32, align 4
  %12 = alloca i8, align 1
  %13 = alloca ptr, align 8
  %14 = alloca i32, align 4
  %15 = alloca i32, align 4
  %16 = alloca i32, align 4
  store ptr %0, ptr %7, align 8, !tbaa !3
  store ptr %1, ptr %8, align 8, !tbaa !3
  store i32 %2, ptr %9, align 4, !tbaa !7
  store i32 %3, ptr %10, align 4, !tbaa !7
  store i32 %4, ptr %11, align 4, !tbaa !7
  call void @llvm.lifetime.start.p0(i64 1, ptr %12) #4
  store i8 0, ptr %12, align 1, !tbaa !9
  call void @llvm.lifetime.start.p0(i64 8, ptr %13) #4
  call void @llvm.lifetime.start.p0(i64 4, ptr %14) #4
  store i32 0, ptr %14, align 4, !tbaa !7
  br label %17

17:                                               ; preds = %55, %5
  %18 = load ptr, ptr %7, align 8, !tbaa !3
  %19 = load i32, ptr %14, align 4, !tbaa !7
  %20 = zext i32 %19 to i64
  %21 = getelementptr inbounds nuw ptr, ptr %18, i64 %20
  %22 = load ptr, ptr %21, align 8, !tbaa !3
  %23 = icmp ne ptr %22, null
  br i1 %23, label %24, label %58

24:                                               ; preds = %17
  %25 = load ptr, ptr %7, align 8, !tbaa !3
  %26 = load i32, ptr %14, align 4, !tbaa !7
  %27 = zext i32 %26 to i64
  %28 = getelementptr inbounds nuw ptr, ptr %25, i64 %27
  %29 = load ptr, ptr %28, align 8, !tbaa !3
  store ptr %29, ptr %13, align 8, !tbaa !3
  call void @llvm.lifetime.start.p0(i64 4, ptr %15) #4
  store i32 1, ptr %15, align 4, !tbaa !7
  %30 = load ptr, ptr %13, align 8, !tbaa !3
  %31 = getelementptr inbounds nuw %struct._lv_draw_sw_mask_common_dsc_t, ptr %30, i32 0, i32 0
  %32 = load ptr, ptr %31, align 8, !tbaa !11
  %33 = load ptr, ptr %8, align 8, !tbaa !3
  %34 = load i32, ptr %9, align 4, !tbaa !7
  %35 = load i32, ptr %10, align 4, !tbaa !7
  %36 = load i32, ptr %11, align 4, !tbaa !7
  %37 = load ptr, ptr %7, align 8, !tbaa !3
  %38 = load i32, ptr %14, align 4, !tbaa !7
  %39 = zext i32 %38 to i64
  %40 = getelementptr inbounds nuw ptr, ptr %37, i64 %39
  %41 = load ptr, ptr %40, align 8, !tbaa !3
  %42 = call i32 %32(ptr noundef %33, i32 noundef %34, i32 noundef %35, i32 noundef %36, ptr noundef %41)
  store i32 %42, ptr %15, align 4, !tbaa !7
  %43 = load i32, ptr %15, align 4, !tbaa !7
  %44 = icmp eq i32 %43, 0
  br i1 %44, label %45, label %46

45:                                               ; preds = %24
  store i32 0, ptr %6, align 4
  store i32 1, ptr %16, align 4
  br label %52

46:                                               ; preds = %24
  %47 = load i32, ptr %15, align 4, !tbaa !7
  %48 = icmp eq i32 %47, 2
  br i1 %48, label %49, label %50

49:                                               ; preds = %46
  store i8 1, ptr %12, align 1, !tbaa !9
  br label %50

50:                                               ; preds = %49, %46
  br label %51

51:                                               ; preds = %50
  store i32 0, ptr %16, align 4
  br label %52

52:                                               ; preds = %51, %45
  call void @llvm.lifetime.end.p0(i64 4, ptr %15) #4
  %53 = load i32, ptr %16, align 4
  switch i32 %53, label %62 [
    i32 0, label %54
  ]

54:                                               ; preds = %52
  br label %55

55:                                               ; preds = %54
  %56 = load i32, ptr %14, align 4, !tbaa !7
  %57 = add i32 %56, 1
  store i32 %57, ptr %14, align 4, !tbaa !7
  br label %17, !llvm.loop !13

58:                                               ; preds = %17
  %59 = load i8, ptr %12, align 1, !tbaa !9, !range !15, !noundef !16
  %60 = trunc i8 %59 to i1
  %61 = select i1 %60, i32 2, i32 1
  store i32 %61, ptr %6, align 4
  store i32 1, ptr %16, align 4
  br label %62

62:                                               ; preds = %58, %52
  call void @llvm.lifetime.end.p0(i64 4, ptr %14) #4
  call void @llvm.lifetime.end.p0(i64 8, ptr %13) #4
  call void @llvm.lifetime.end.p0(i64 1, ptr %12) #4
  %63 = load i32, ptr %6, align 4
  ret i32 %63
}