; Function Attrs: nounwind uwtable
define range(i32 0, 3) i32 @lv_draw_sw_mask_apply(ptr nocapture noundef readonly %0, ptr noundef %1, i32 noundef %2, i32 noundef %3, i32 noundef %4) local_unnamed_addr #0 {
  %6 = load ptr, ptr %0, align 8, !tbaa !3
  %.not25 = icmp eq ptr %6, null
  br i1 %.not25, label %.loopexit, label %.lr.ph

.lr.ph:                                           ; preds = %5, %10
  %7 = phi ptr [ %15, %10 ], [ %6, %5 ]
  %.01627 = phi i32 [ %12, %10 ], [ 0, %5 ]
  %.01826 = phi i1 [ %spec.select, %10 ], [ false, %5 ]
  %8 = load ptr, ptr %7, align 8, !tbaa !7
  %9 = tail call i32 %8(ptr noundef %1, i32 noundef %2, i32 noundef %3, i32 noundef %4, ptr noundef nonnull %7) #7
  %.not23 = icmp eq i32 %9, 0
  br i1 %.not23, label %.loopexit, label %10

10:                                               ; preds = %.lr.ph
  %11 = icmp eq i32 %9, 2
  %spec.select = select i1 %11, i1 true, i1 %.01826
  %12 = add i32 %.01627, 1
  %13 = zext i32 %12 to i64
  %14 = getelementptr inbounds nuw ptr, ptr %0, i64 %13
  %15 = load ptr, ptr %14, align 8, !tbaa !3
  %.not = icmp eq ptr %15, null
  br i1 %.not, label %._crit_edge.loopexit, label %.lr.ph, !llvm.loop !10

._crit_edge.loopexit:                             ; preds = %10
  %16 = select i1 %spec.select, i32 2, i32 1
  br label %.loopexit

.loopexit:                                        ; preds = %.lr.ph, %5, %._crit_edge.loopexit
  %.2 = phi i32 [ 1, %5 ], [ %16, %._crit_edge.loopexit ], [ 0, %.lr.ph ]
  ret i32 %.2
}